target datalayout = "e-m:e-p270:32:32-p271:32:32-p272:64:64-i64:64-i128:128-f80:128-n8:16:32:64-S128"
target triple = "x86_64-pc-linux-gnu"

%struct.AVFilterContext = type { ptr, ptr, ptr, ptr, ptr, i32, ptr, ptr, i32, ptr, ptr, i32, i32, ptr, ptr, ptr, ptr, i32, ptr, i32, i32 }
%struct.DejudderContext = type { ptr, ptr, i32, i32, i32, i32, i64, i32, i32 }
%struct.AVFilterLink = type { ptr, ptr, ptr, ptr, i32, i32, i32, i32, %struct.AVRational, i32, i32, i32, %struct.AVChannelLayout, %struct.AVRational, ptr, i32, %struct.AVFilterFormatsConfig, %struct.AVFilterFormatsConfig }
%struct.AVChannelLayout = type { i32, i32, %union.anon.1, ptr }
%union.anon.1 = type { i64 }
%struct.AVRational = type { i32, i32 }
%struct.AVFilterFormatsConfig = type { ptr, ptr, ptr, ptr, ptr }
%struct.FilterLink = type { %struct.AVFilterLink, ptr, i64, i64, i32, i32, i64, i64, i64, i64, %struct.AVRational, ptr }

@.str.5 = private unnamed_addr constant [10 x i8] c"cycle:%d\0A\00", align 1

; Function Attrs: inlinehint nounwind uwtable
define internal i64 @av_make_q(i32 noundef %0, i32 noundef %1) #4 {
  %3 = alloca %struct.AVRational, align 4
  %4 = alloca i32, align 4
  %5 = alloca i32, align 4
  store i32 %0, ptr %4, align 4, !tbaa !55
  store i32 %1, ptr %5, align 4, !tbaa !55
  %6 = getelementptr inbounds nuw %struct.AVRational, ptr %3, i32 0, i32 0
  %7 = load i32, ptr %4, align 4, !tbaa !55
  store i32 %7, ptr %6, align 4, !tbaa !64
  %8 = getelementptr inbounds nuw %struct.AVRational, ptr %3, i32 0, i32 1
  %9 = load i32, ptr %5, align 4, !tbaa !55
  store i32 %9, ptr %8, align 4, !tbaa !65
  %10 = load i64, ptr %3, align 4
  ret i64 %10
}

; Function Attrs: inlinehint nounwind uwtable
define internal ptr @ff_filter_link(ptr noundef %0) #4 {
  %2 = alloca ptr, align 8
  store ptr %0, ptr %2, align 8, !tbaa !35
  %3 = load ptr, ptr %2, align 8, !tbaa !35
  ret ptr %3
}

; Function Attrs: nounwind uwtable
define internal i32 @config_out_props(ptr noundef %0) #1 {
  %2 = alloca ptr, align 8
  %3 = alloca ptr, align 8
  %4 = alloca ptr, align 8
  %5 = alloca ptr, align 8
  %6 = alloca ptr, align 8
  %7 = alloca ptr, align 8
  %8 = alloca %struct.AVRational, align 4
  %9 = alloca %struct.AVRational, align 4
  %10 = alloca %struct.AVRational, align 4
  %11 = alloca %struct.AVRational, align 4
  store ptr %0, ptr %2, align 8, !tbaa !35
  call void @llvm.lifetime.start.p0(i64 8, ptr %3) #7
  %12 = load ptr, ptr %2, align 8, !tbaa !35
  %13 = call ptr @ff_filter_link(ptr noundef %12)
  store ptr %13, ptr %3, align 8, !tbaa !59
  call void @llvm.lifetime.start.p0(i64 8, ptr %4) #7
  %14 = load ptr, ptr %2, align 8, !tbaa !35
  %15 = getelementptr inbounds nuw %struct.AVFilterLink, ptr %14, i32 0, i32 0
  %16 = load ptr, ptr %15, align 8, !tbaa !61
  store ptr %16, ptr %4, align 8, !tbaa !4
  call void @llvm.lifetime.start.p0(i64 8, ptr %5) #7
  %17 = load ptr, ptr %4, align 8, !tbaa !4
  %18 = getelementptr inbounds nuw %struct.AVFilterContext, ptr %17, i32 0, i32 9
  %19 = load ptr, ptr %18, align 8, !tbaa !9
  store ptr %19, ptr %5, align 8, !tbaa !22
  call void @llvm.lifetime.start.p0(i64 8, ptr %6) #7
  %20 = load ptr, ptr %2, align 8, !tbaa !35
  %21 = getelementptr inbounds nuw %struct.AVFilterLink, ptr %20, i32 0, i32 0
  %22 = load ptr, ptr %21, align 8, !tbaa !61
  %23 = getelementptr inbounds nuw %struct.AVFilterContext, ptr %22, i32 0, i32 4
  %24 = load ptr, ptr %23, align 8, !tbaa !62
  %25 = getelementptr inbounds ptr, ptr %24, i64 0
  %26 = load ptr, ptr %25, align 8, !tbaa !35
  store ptr %26, ptr %6, align 8, !tbaa !35
  call void @llvm.lifetime.start.p0(i64 8, ptr %7) #7
  %27 = load ptr, ptr %6, align 8, !tbaa !35
  %28 = call ptr @ff_filter_link(ptr noundef %27)
  store ptr %28, ptr %7, align 8, !tbaa !59
  %29 = load ptr, ptr %2, align 8, !tbaa !35
  %30 = getelementptr inbounds nuw %struct.AVFilterLink, ptr %29, i32 0, i32 13
  call void @llvm.lifetime.start.p0(i64 8, ptr %8) #7
  %31 = load ptr, ptr %6, align 8, !tbaa !35
  %32 = getelementptr inbounds nuw %struct.AVFilterLink, ptr %31, i32 0, i32 13
  %33 = load ptr, ptr %5, align 8, !tbaa !22
  %34 = getelementptr inbounds nuw %struct.DejudderContext, ptr %33, i32 0, i32 8
  %35 = load i32, ptr %34, align 4, !tbaa !24
  %36 = mul nsw i32 2, %35
  %37 = call i64 @av_make_q(i32 noundef 1, i32 noundef %36)
  store i64 %37, ptr %9, align 4
  %38 = load i64, ptr %32, align 8
  %39 = load i64, ptr %9, align 4
  %40 = call i64 @av_mul_q(i64 %38, i64 %39) #8
  store i64 %40, ptr %8, align 4
  call void @llvm.memcpy.p0.p0.i64(ptr align 8 %30, ptr align 4 %8, i64 8, i1 false), !tbaa.struct !63
  call void @llvm.lifetime.end.p0(i64 8, ptr %8) #7
  %41 = load ptr, ptr %3, align 8, !tbaa !59
  %42 = getelementptr inbounds nuw %struct.FilterLink, ptr %41, i32 0, i32 10
  call void @llvm.lifetime.start.p0(i64 8, ptr %10) #7
  %43 = load ptr, ptr %7, align 8, !tbaa !59
  %44 = getelementptr inbounds nuw %struct.FilterLink, ptr %43, i32 0, i32 10
  %45 = load ptr, ptr %5, align 8, !tbaa !22
  %46 = getelementptr inbounds nuw %struct.DejudderContext, ptr %45, i32 0, i32 8
  %47 = load i32, ptr %46, align 4, !tbaa !24
  %48 = mul nsw i32 2, %47
  %49 = call i64 @av_make_q(i32 noundef %48, i32 noundef 1)
  store i64 %49, ptr %11, align 4
  %50 = load i64, ptr %44, align 8
  %51 = load i64, ptr %11, align 4
  %52 = call i64 @av_mul_q(i64 %50, i64 %51) #8
  store i64 %52, ptr %10, align 4
  call void @llvm.memcpy.p0.p0.i64(ptr align 8 %42, ptr align 4 %10, i64 8, i1 false), !tbaa.struct !63
  call void @llvm.lifetime.end.p0(i64 8, ptr %10) #7
  %53 = load ptr, ptr %4, align 8, !tbaa !4
  %54 = load ptr, ptr %5, align 8, !tbaa !22
  %55 = getelementptr inbounds nuw %struct.DejudderContext, ptr %54, i32 0, i32 8
  %56 = load i32, ptr %55, align 4, !tbaa !24
  call void (ptr, i32, ptr, ...) @av_log(ptr noundef %53, i32 noundef 40, ptr noundef @.str.5, i32 noundef %56)
  call void @llvm.lifetime.end.p0(i64 8, ptr %7) #7
  call void @llvm.lifetime.end.p0(i64 8, ptr %6) #7
  call void @llvm.lifetime.end.p0(i64 8, ptr %5) #7
  call void @llvm.lifetime.end.p0(i64 8, ptr %4) #7
  call void @llvm.lifetime.end.p0(i64 8, ptr %3) #7
  ret i32 0
}