; Function Attrs: nounwind uwtable
define internal noundef i32 @config_out_props(ptr noundef captures(none) initializes((96, 104), (264, 272)) %0) #1 {
  %2 = load ptr, ptr %0, align 8, !tbaa !52
  %3 = getelementptr inbounds nuw i8, ptr %2, i64 72
  %4 = load ptr, ptr %3, align 8, !tbaa !4
  %5 = getelementptr inbounds nuw i8, ptr %2, i64 32
  %6 = load ptr, ptr %5, align 8, !tbaa !53
  %7 = load ptr, ptr %6, align 8, !tbaa !41
  %8 = getelementptr inbounds nuw i8, ptr %0, i64 96
  %9 = getelementptr inbounds nuw i8, ptr %7, i64 96
  %10 = getelementptr inbounds nuw i8, ptr %4, i64 44
  %11 = load i32, ptr %10, align 4, !tbaa !20
  %12 = shl nsw i32 %11, 1
  %.sroa.2.0.insert.ext.i = zext i32 %12 to i64
  %.sroa.2.0.insert.shift.i = shl nuw i64 %.sroa.2.0.insert.ext.i, 32
  %.sroa.0.0.insert.insert.i = or disjoint i64 %.sroa.2.0.insert.shift.i, 1
  %13 = load i64, ptr %9, align 8
  %14 = tail call i64 @av_mul_q(i64 %13, i64 %.sroa.0.0.insert.insert.i) #5
  store i64 %14, ptr %8, align 8
  %15 = getelementptr inbounds nuw i8, ptr %0, i64 264
  %16 = getelementptr inbounds nuw i8, ptr %7, i64 264
  %17 = load i32, ptr %10, align 4, !tbaa !20
  %18 = shl nsw i32 %17, 1
  %.sroa.0.0.insert.ext.i = zext i32 %18 to i64
  %.sroa.0.0.insert.insert.i16 = or disjoint i64 %.sroa.0.0.insert.ext.i, 4294967296
  %19 = load i64, ptr %16, align 8
  %20 = tail call i64 @av_mul_q(i64 %19, i64 %.sroa.0.0.insert.insert.i16) #5
  store i64 %20, ptr %15, align 8
  %21 = load i32, ptr %10, align 4, !tbaa !20
  tail call void (ptr, i32, ptr, ...) @av_log(ptr noundef %2, i32 noundef 40, ptr noundef nonnull @.str.5, i32 noundef %21) #4
  ret i32 0
}